; Function Attrs: mustprogress nofree norecurse nosync nounwind willreturn memory(argmem: read) uwtable
define dso_local range(i64 0, 8589934592) i64 @_ZNK4llvm11DIBasicType13getSignednessEv(ptr nocapture noundef nonnull readonly align 8 dereferenceable(44) %0) local_unnamed_addr #2 align 2 {
  %2 = getelementptr inbounds nuw i8, ptr %0, i64 40
  %3 = load i32, ptr %2, align 8
  %switch.tableidx = add i32 %3, -5
  %4 = icmp ult i32 %switch.tableidx, 4
  br i1 %4, label %switch.lookup, label %6

switch.lookup:                                    ; preds = %1
  %5 = zext nneg i32 %switch.tableidx to i64
  %switch.gep = getelementptr inbounds [4 x i64], ptr @switch.table._ZN4llvm12DIExpression13getActiveBitsEPNS_10DIVariableE, i64 0, i64 %5
  %switch.load = load i64, ptr %switch.gep, align 8
  br label %6

6:                                                ; preds = %1, %switch.lookup
  %.sroa.0.0 = phi i64 [ %switch.load, %switch.lookup ], [ 0, %1 ]
  %.sroa.3.0 = phi i64 [ 4294967296, %switch.lookup ], [ 0, %1 ]
  %.sroa.0.0.insert.insert = or disjoint i64 %.sroa.3.0, %.sroa.0.0
  ret i64 %.sroa.0.0.insert.insert
}